target datalayout = "e-m:e-p270:32:32-p271:32:32-p272:64:64-i64:64-i128:128-f80:128-n8:16:32:64-S128"
target triple = "x86_64-pc-linux-gnu"

%class.RenderHelper = type { i32, i32, i32, i32, [6 x i32], i32, ptr, ptr, ptr, ptr, float, float }

; Function Attrs: mustprogress nounwind uwtable
define void @_ZN12RenderHelperC2Ev(ptr noundef nonnull align 8 dereferenceable(88) %0) unnamed_addr #4 align 2 {
  %2 = alloca ptr, align 8
  store ptr %0, ptr %2, align 8
  %3 = load ptr, ptr %2, align 8
  %4 = getelementptr inbounds %class.RenderHelper, ptr %3, i32 0, i32 5
  store i32 0, ptr %4, align 8
  %5 = getelementptr inbounds %class.RenderHelper, ptr %3, i32 0, i32 7
  store ptr null, ptr %5, align 8
  %6 = getelementptr inbounds %class.RenderHelper, ptr %3, i32 0, i32 9
  store ptr null, ptr %6, align 8
  %7 = getelementptr inbounds %class.RenderHelper, ptr %3, i32 0, i32 10
  store float 0.000000e+00, ptr %7, align 8
  %8 = getelementptr inbounds %class.RenderHelper, ptr %3, i32 0, i32 11
  store float 0.000000e+00, ptr %8, align 4
  %9 = getelementptr inbounds %class.RenderHelper, ptr %3, i32 0, i32 0
  store i32 0, ptr %9, align 8
  %10 = getelementptr inbounds %class.RenderHelper, ptr %3, i32 0, i32 1
  store i32 0, ptr %10, align 4
  %11 = getelementptr inbounds %class.RenderHelper, ptr %3, i32 0, i32 2
  store i32 0, ptr %11, align 8
  %12 = getelementptr inbounds %class.RenderHelper, ptr %3, i32 0, i32 3
  store i32 0, ptr %12, align 4
  ret void
}