; Function Attrs: mustprogress nofree norecurse nosync nounwind willreturn memory(argmem: write) uwtable
define void @_ZN12RenderHelperC2Ev(ptr nocapture noundef nonnull writeonly align 8 dereferenceable(88) %0) unnamed_addr #21 align 2 {
  %2 = getelementptr inbounds i8, ptr %0, i64 40
  store i32 0, ptr %2, align 8
  %3 = getelementptr inbounds i8, ptr %0, i64 56
  store ptr null, ptr %3, align 8
  %4 = getelementptr inbounds i8, ptr %0, i64 72
  tail call void @llvm.memset.p0.i64(ptr noundef nonnull align 8 dereferenceable(16) %0, i8 0, i64 16, i1 false)
  tail call void @llvm.memset.p0.i64(ptr noundef nonnull align 8 dereferenceable(16) %4, i8 0, i64 16, i1 false)
  ret void
}